target datalayout = "e-m:e-p270:32:32-p271:32:32-p272:64:64-i64:64-i128:128-f80:128-n8:16:32:64-S128"
target triple = "x86_64-pc-linux-gnu"

%"class.std::vector" = type { %"struct.std::_Vector_base" }
%"struct.std::_Vector_base" = type { %"struct.std::_Vector_base<gmx::RangePartitioning, std::allocator<gmx::RangePartitioning>>::_Vector_impl" }
%"struct.std::_Vector_base<gmx::RangePartitioning, std::allocator<gmx::RangePartitioning>>::_Vector_impl" = type { %"struct.std::_Vector_base<gmx::RangePartitioning, std::allocator<gmx::RangePartitioning>>::_Vector_impl_data" }
%"struct.std::_Vector_base<gmx::RangePartitioning, std::allocator<gmx::RangePartitioning>>::_Vector_impl_data" = type { ptr, ptr, ptr }
%"class.std::vector.7" = type { %"struct.std::_Vector_base.8" }
%"struct.std::_Vector_base.8" = type { %"struct.std::_Vector_base<int, std::allocator<int>>::_Vector_impl" }
%"struct.std::_Vector_base<int, std::allocator<int>>::_Vector_impl" = type { %"struct.std::_Vector_base<int, std::allocator<int>>::_Vector_impl_data" }
%"struct.std::_Vector_base<int, std::allocator<int>>::_Vector_impl_data" = type { ptr, ptr, ptr }
%"class.gmx::RangePartitioning" = type { %"class.std::vector.7" }
%"class.gmx::ArrayRef.161" = type { %"struct.gmx::ArrayRefIter.162", %"struct.gmx::ArrayRefIter.162" }
%"struct.gmx::ArrayRefIter.162" = type { ptr }
%"class.gmx::UpdateGroups" = type <{ i8, [7 x i8], %"class.std::vector", float, [4 x i8] }>

; Function Attrs: mustprogress nounwind uwtable
define linkonce_odr noundef ptr @_ZNKSt6vectorIN3gmx17RangePartitioningESaIS1_EE11_M_data_ptrIS1_EEPT_S6_(ptr noundef nonnull align 8 dereferenceable(24) %0, ptr noundef %1) #2 comdat align 2 {
  %3 = alloca ptr, align 8
  %4 = alloca ptr, align 8
  store ptr %0, ptr %3, align 8, !tbaa !42
  store ptr %1, ptr %4, align 8, !tbaa !76
  %5 = load ptr, ptr %4, align 8, !tbaa !76
  ret ptr %5
}

; Function Attrs: mustprogress nounwind uwtable
define linkonce_odr noundef i64 @_ZNKSt6vectorIN3gmx17RangePartitioningESaIS1_EE4sizeEv(ptr noundef nonnull align 8 dereferenceable(24) %0) #2 comdat align 2 {
  %2 = alloca ptr, align 8
  store ptr %0, ptr %2, align 8, !tbaa !42
  %3 = load ptr, ptr %2, align 8
  %4 = getelementptr inbounds nuw %"struct.std::_Vector_base", ptr %3, i32 0, i32 0
  %5 = getelementptr inbounds nuw %"struct.std::_Vector_base<gmx::RangePartitioning, std::allocator<gmx::RangePartitioning>>::_Vector_impl_data", ptr %4, i32 0, i32 1
  %6 = load ptr, ptr %5, align 8, !tbaa !78
  %7 = getelementptr inbounds nuw %"struct.std::_Vector_base", ptr %3, i32 0, i32 0
  %8 = getelementptr inbounds nuw %"struct.std::_Vector_base<gmx::RangePartitioning, std::allocator<gmx::RangePartitioning>>::_Vector_impl_data", ptr %7, i32 0, i32 0
  %9 = load ptr, ptr %8, align 8, !tbaa !83
  %10 = ptrtoint ptr %6 to i64
  %11 = ptrtoint ptr %9 to i64
  %12 = sub i64 %10, %11
  %13 = sdiv exact i64 %12, 24
  ret i64 %13
}

; Function Attrs: mustprogress nounwind uwtable
define linkonce_odr void @_ZN3gmx12ArrayRefIterIKNS_17RangePartitioningEEC2EPS2_(ptr noundef nonnull align 8 dereferenceable(8) %0, ptr noundef %1) unnamed_addr #2 comdat align 2 {
  %3 = alloca ptr, align 8
  %4 = alloca ptr, align 8
  store ptr %0, ptr %3, align 8, !tbaa !361
  store ptr %1, ptr %4, align 8, !tbaa !76
  %5 = load ptr, ptr %3, align 8
  %6 = getelementptr inbounds nuw %"struct.gmx::ArrayRefIter.162", ptr %5, i32 0, i32 0
  %7 = load ptr, ptr %4, align 8, !tbaa !76
  store ptr %7, ptr %6, align 8, !tbaa !363
  ret void
}

; Function Attrs: mustprogress nounwind uwtable
define linkonce_odr noundef ptr @_ZNKSt6vectorIN3gmx17RangePartitioningESaIS1_EE4dataEv(ptr noundef nonnull align 8 dereferenceable(24) %0) #2 comdat align 2 {
  %2 = alloca ptr, align 8
  store ptr %0, ptr %2, align 8, !tbaa !42
  %3 = load ptr, ptr %2, align 8
  %4 = getelementptr inbounds nuw %"struct.std::_Vector_base", ptr %3, i32 0, i32 0
  %5 = getelementptr inbounds nuw %"struct.std::_Vector_base<gmx::RangePartitioning, std::allocator<gmx::RangePartitioning>>::_Vector_impl_data", ptr %4, i32 0, i32 0
  %6 = load ptr, ptr %5, align 8, !tbaa !83
  %7 = call noundef ptr @_ZNKSt6vectorIN3gmx17RangePartitioningESaIS1_EE11_M_data_ptrIS1_EEPT_S6_(ptr noundef nonnull align 8 dereferenceable(24) %3, ptr noundef %6) #5
  ret ptr %7
}

; Function Attrs: mustprogress nounwind uwtable
define linkonce_odr void @_ZN3gmx8ArrayRefIKNS_17RangePartitioningEEC2IRKSt6vectorIS1_SaIS1_EEvEEOT_(ptr noundef nonnull align 8 dereferenceable(16) %0, ptr noundef nonnull align 8 dereferenceable(24) %1) unnamed_addr #2 comdat align 2 {
  %3 = alloca ptr, align 8
  %4 = alloca ptr, align 8
  store ptr %0, ptr %3, align 8, !tbaa !351
  store ptr %1, ptr %4, align 8, !tbaa !42
  %5 = load ptr, ptr %3, align 8
  %6 = getelementptr inbounds nuw %"class.gmx::ArrayRef.161", ptr %5, i32 0, i32 0
  %7 = load ptr, ptr %4, align 8, !tbaa !42
  %8 = call noundef ptr @_ZNKSt6vectorIN3gmx17RangePartitioningESaIS1_EE4dataEv(ptr noundef nonnull align 8 dereferenceable(24) %7) #5
  call void @_ZN3gmx12ArrayRefIterIKNS_17RangePartitioningEEC2EPS2_(ptr noundef nonnull align 8 dereferenceable(8) %6, ptr noundef %8) #5
  %9 = getelementptr inbounds nuw %"class.gmx::ArrayRef.161", ptr %5, i32 0, i32 1
  %10 = load ptr, ptr %4, align 8, !tbaa !42
  %11 = call noundef ptr @_ZNKSt6vectorIN3gmx17RangePartitioningESaIS1_EE4dataEv(ptr noundef nonnull align 8 dereferenceable(24) %10) #5
  %12 = load ptr, ptr %4, align 8, !tbaa !42
  %13 = call noundef i64 @_ZNKSt6vectorIN3gmx17RangePartitioningESaIS1_EE4sizeEv(ptr noundef nonnull align 8 dereferenceable(24) %12) #5
  %14 = getelementptr inbounds nuw %"class.gmx::RangePartitioning", ptr %11, i64 %13
  call void @_ZN3gmx12ArrayRefIterIKNS_17RangePartitioningEEC2EPS2_(ptr noundef nonnull align 8 dereferenceable(8) %9, ptr noundef %14) #5
  ret void
}

; Function Attrs: mustprogress uwtable
define { ptr, ptr } @_ZNK3gmx12UpdateGroups29updateGroupingPerMoleculeTypeEv(ptr noundef nonnull align 8 dereferenceable(36) %0) #3 align 2 {
  %2 = alloca %"class.gmx::ArrayRef.161", align 8
  %3 = alloca ptr, align 8
  store ptr %0, ptr %3, align 8, !tbaa !497
  %4 = load ptr, ptr %3, align 8
  %5 = getelementptr inbounds nuw %"class.gmx::UpdateGroups", ptr %4, i32 0, i32 2
  call void @_ZN3gmx8ArrayRefIKNS_17RangePartitioningEEC2IRKSt6vectorIS1_SaIS1_EEvEEOT_(ptr noundef nonnull align 8 dereferenceable(16) %2, ptr noundef nonnull align 8 dereferenceable(24) %5)
  %6 = load { ptr, ptr }, ptr %2, align 8
  ret { ptr, ptr } %6
}